; Function Attrs: mustprogress uwtable
define internal void @_ZNK5faiss12_GLOBAL__N_114IVFSQScannerIPINS0_10DCTemplateINS0_17QuantizerTemplateINS0_9Codec8bitELb1ELi1EEENS0_12SimilarityIPILi1EEELi1EEELi1EE16scan_codes_rangeEmPKhPKlfRNS_16RangeQueryResultE(ptr nocapture noundef nonnull readonly align 8 dereferenceable(104) %0, i64 noundef %1, ptr nocapture noundef readonly %2, ptr nocapture noundef readonly %3, float noundef %4, ptr noundef nonnull align 8 dereferenceable(24) %5) unnamed_addr #0 align 2 {
  %.not21 = icmp eq i64 %1, 0
  br i1 %.not21, label %._crit_edge, label %.lr.ph

.lr.ph:                                           ; preds = %6
  %7 = getelementptr inbounds i8, ptr %0, i64 24
  %8 = getelementptr inbounds i8, ptr %0, i64 100
  %9 = getelementptr inbounds i8, ptr %0, i64 80
  %10 = getelementptr inbounds i8, ptr %0, i64 64
  %11 = getelementptr inbounds i8, ptr %0, i64 88
  %12 = getelementptr inbounds i8, ptr %0, i64 92
  %13 = getelementptr inbounds i8, ptr %0, i64 17
  %14 = getelementptr inbounds i8, ptr %0, i64 8
  %15 = getelementptr inbounds i8, ptr %0, i64 32
  br label %16

16:                                               ; preds = %.lr.ph, %54
  %.019 = phi ptr [ %2, %.lr.ph ], [ %57, %54 ]
  %.01517 = phi i64 [ 0, %.lr.ph ], [ %55, %54 ]
  %17 = load ptr, ptr %7, align 8
  %18 = getelementptr inbounds i64, ptr %3, i64 %.01517
  %19 = load i64, ptr %18, align 8
  %20 = load ptr, ptr %17, align 8
  %21 = load ptr, ptr %20, align 8
  %22 = tail call noundef zeroext i1 %21(ptr noundef nonnull align 8 dereferenceable(8) %17, i64 noundef %19)
  br i1 %22, label %23, label %54

23:                                               ; preds = %16
  %24 = load float, ptr %8, align 4
  %25 = load i64, ptr %9, align 8
  %.not.i.i = icmp eq i64 %25, 0
  br i1 %.not.i.i, label %_ZNK5faiss12_GLOBAL__N_110DCTemplateINS0_17QuantizerTemplateINS0_9Codec8bitELb1ELi1EEENS0_12SimilarityIPILi1EEELi1EE13query_to_codeEPKh.exit, label %.lr.ph.i.i

.lr.ph.i.i:                                       ; preds = %23
  %26 = load ptr, ptr %10, align 8
  %27 = load float, ptr %11, align 8
  %28 = load float, ptr %12, align 4
  br label %29

29:                                               ; preds = %29, %.lr.ph.i.i
  %.019.i.i = phi i64 [ 0, %.lr.ph.i.i ], [ %40, %29 ]
  %.sroa.5.018.i.i = phi float [ 0.000000e+00, %.lr.ph.i.i ], [ %39, %29 ]
  %.sroa.2.017.i.i = phi ptr [ %26, %.lr.ph.i.i ], [ %37, %29 ]
  %sext.i.i = shl i64 %.019.i.i, 32
  %30 = ashr exact i64 %sext.i.i, 32
  %31 = getelementptr inbounds i8, ptr %.019, i64 %30
  %32 = load i8, ptr %31, align 1
  %33 = uitofp i8 %32 to float
  %34 = fadd float %33, 5.000000e-01
  %35 = fdiv float %34, 2.550000e+02
  %36 = tail call noundef float @llvm.fmuladd.f32(float %35, float %28, float %27)
  %37 = getelementptr inbounds i8, ptr %.sroa.2.017.i.i, i64 4
  %38 = load float, ptr %.sroa.2.017.i.i, align 4
  %39 = tail call float @llvm.fmuladd.f32(float %38, float %36, float %.sroa.5.018.i.i)
  %40 = add nuw i64 %.019.i.i, 1
  %exitcond.not.i.i = icmp eq i64 %40, %25
  br i1 %exitcond.not.i.i, label %_ZNK5faiss12_GLOBAL__N_110DCTemplateINS0_17QuantizerTemplateINS0_9Codec8bitELb1ELi1EEENS0_12SimilarityIPILi1EEELi1EE13query_to_codeEPKh.exit, label %29, !llvm.loop !61

_ZNK5faiss12_GLOBAL__N_110DCTemplateINS0_17QuantizerTemplateINS0_9Codec8bitELb1ELi1EEENS0_12SimilarityIPILi1EEELi1EE13query_to_codeEPKh.exit: ; preds = %29, %23
  %.sroa.5.0.lcssa.i.i = phi float [ 0.000000e+00, %23 ], [ %39, %29 ]
  %41 = fadd float %24, %.sroa.5.0.lcssa.i.i
  %42 = fcmp ogt float %41, %4
  br i1 %42, label %43, label %54

43:                                               ; preds = %_ZNK5faiss12_GLOBAL__N_110DCTemplateINS0_17QuantizerTemplateINS0_9Codec8bitELb1ELi1EEENS0_12SimilarityIPILi1EEELi1EE13query_to_codeEPKh.exit
  %44 = load i8, ptr %13, align 1
  %45 = and i8 %44, 1
  %.not = icmp eq i8 %45, 0
  br i1 %.not, label %50, label %46

46:                                               ; preds = %43
  %47 = load i64, ptr %14, align 8
  %48 = shl i64 %47, 32
  %49 = or i64 %48, %.01517
  br label %52

50:                                               ; preds = %43
  %51 = load i64, ptr %18, align 8
  br label %52

52:                                               ; preds = %50, %46
  %53 = phi i64 [ %49, %46 ], [ %51, %50 ]
  tail call void @_ZN5faiss16RangeQueryResult3addEfl(ptr noundef nonnull align 8 dereferenceable(24) %5, float noundef %41, i64 noundef %53)
  br label %54

54:                                               ; preds = %_ZNK5faiss12_GLOBAL__N_110DCTemplateINS0_17QuantizerTemplateINS0_9Codec8bitELb1ELi1EEENS0_12SimilarityIPILi1EEELi1EE13query_to_codeEPKh.exit, %52, %16
  %55 = add nuw i64 %.01517, 1
  %56 = load i64, ptr %15, align 8
  %57 = getelementptr inbounds i8, ptr %.019, i64 %56
  %exitcond.not = icmp eq i64 %55, %1
  br i1 %exitcond.not, label %._crit_edge, label %16, !llvm.loop !129

._crit_edge:                                      ; preds = %54, %6
  ret void
}